(iframework
Auto_player
p0
(dp1
S'status'
p2
S'crazy_guy'
p3
sS'net'
p4
(iUnbiasedNet
NeuralNet
p5
(dp6
S'lamb'
p7
F1.0
sS'n_in'
p8
I1
sS'w_out'
p9
cnumpy.core.multiarray
_reconstruct
p10
(cnumpy
ndarray
p11
(I0
tp12
S'b'
p13
tp14
Rp15
(I1
(I1
I1
tp16
cnumpy
dtype
p17
(S'f8'
p18
I0
I1
tp19
Rp20
(I3
S'<'
p21
NNNI-1
I-1
I0
tp22
bI00
S'h5\xf1\x80\xbeV\xdb?'
p23
tp24
bsS'alpha'
p25
F0.5
sS'n_hidden'
p26
I1
sS'n_out'
p27
I1
sS'w_in'
p28
g10
(g11
(I0
tp29
g13
tp30
Rp31
(I1
(I1
I1
tp32
g20
I00
S'@\x7fr3pB\xdc\xbf'
p33
tp34
bsbsS'frenzy'
p35
I1
sS'name'
p36
S'anonymous'
p37
sb.