(lp0
(lp1
I1
aI1
aF0.001
aF0.01
aa(lp2
F0.001
aI1
aF0.1
aF0.01
aa(lp3
F0.001
aF0.1
aI1
aF0.01
aa(lp4
I1
aI1
aI1
aF0.1
aa(lp5
I5
aI1
aI1
aF0.1
aa(lp6
I1
aI5
aI1
aF0.1
aa(lp7
I1
aI1
aI5
aF0.1
aa(lp8
I1
aI1
aI1
aI1
aa(lp9
I5
aI1
aI1
aI1
aa(lp10
I1
aI5
aI1
aI1
aa(lp11
I1
aI1
aI5
aI1
aa.